target datalayout = "e-m:e-p270:32:32-p271:32:32-p272:64:64-i64:64-i128:128-f80:128-n8:16:32:64-S128"
target triple = "x86_64-pc-linux-gnu"

%struct.dirent = type { i64, i64, i16, i8, [256 x i8] }

@plugin_type = dso_local constant [15 x i8] c"proctrack/pgid\00", align 1
@.str.2 = private unnamed_addr constant [6 x i8] c"/proc\00", align 1
@.str.3 = private unnamed_addr constant [19 x i8] c"opendir(/proc): %m\00", align 1
@.str.4 = private unnamed_addr constant [17 x i8] c"proctrack_pgid.c\00", align 1
@__func__.proctrack_p_get_pids = private unnamed_addr constant [21 x i8] c"proctrack_p_get_pids\00", align 1
@.str.5 = private unnamed_addr constant [40 x i8] c"couldn't do a strtol on str %s(%ld): %m\00", align 1
@.str.6 = private unnamed_addr constant [14 x i8] c"/proc/%s/stat\00", align 1
@.str.7 = private unnamed_addr constant [18 x i8] c"%ld %s %c %ld %ld\00", align 1
@.str.8 = private unnamed_addr constant [79 x i8] c"%s: %s: Defunct process skipped: command=%s state=%c pid=%ld ppid=%ld pgid=%ld\00", align 1

; Function Attrs: nounwind uwtable
define dso_local i32 @proctrack_p_get_pids(i64 noundef %0, ptr noundef %1, ptr noundef %2) #0 {
  %4 = alloca i64, align 8
  %5 = alloca ptr, align 8
  %6 = alloca ptr, align 8
  %7 = alloca ptr, align 8
  %8 = alloca ptr, align 8
  %9 = alloca [4096 x i8], align 16
  %10 = alloca ptr, align 8
  %11 = alloca ptr, align 8
  %12 = alloca ptr, align 8
  %13 = alloca i64, align 8
  %14 = alloca [1024 x i8], align 16
  %15 = alloca i8, align 1
  %16 = alloca i32, align 4
  %17 = alloca i32, align 4
  %18 = alloca i64, align 8
  %19 = alloca i64, align 8
  %20 = alloca i64, align 8
  %21 = alloca i64, align 8
  %22 = alloca ptr, align 8
  %23 = alloca i32, align 4
  store i64 %0, ptr %4, align 8
  store ptr %1, ptr %5, align 8
  store ptr %2, ptr %6, align 8
  call void @llvm.lifetime.start.p0(i64 8, ptr %7) #5
  call void @llvm.lifetime.start.p0(i64 8, ptr %8) #5
  call void @llvm.lifetime.start.p0(i64 4096, ptr %9) #5
  call void @llvm.lifetime.start.p0(i64 8, ptr %10) #5
  call void @llvm.lifetime.start.p0(i64 8, ptr %11) #5
  call void @llvm.lifetime.start.p0(i64 8, ptr %12) #5
  call void @llvm.lifetime.start.p0(i64 8, ptr %13) #5
  call void @llvm.lifetime.start.p0(i64 1024, ptr %14) #5
  call void @llvm.lifetime.start.p0(i64 1, ptr %15) #5
  call void @llvm.lifetime.start.p0(i64 4, ptr %16) #5
  call void @llvm.lifetime.start.p0(i64 4, ptr %17) #5
  store i32 0, ptr %17, align 4
  call void @llvm.lifetime.start.p0(i64 8, ptr %18) #5
  call void @llvm.lifetime.start.p0(i64 8, ptr %19) #5
  call void @llvm.lifetime.start.p0(i64 8, ptr %20) #5
  call void @llvm.lifetime.start.p0(i64 8, ptr %21) #5
  call void @llvm.lifetime.start.p0(i64 8, ptr %22) #5
  store ptr null, ptr %22, align 8
  call void @llvm.lifetime.start.p0(i64 4, ptr %23) #5
  store i32 0, ptr %23, align 4
  %24 = call ptr @opendir(ptr noundef @.str.2)
  store ptr %24, ptr %7, align 8
  %25 = icmp eq ptr %24, null
  br i1 %25, label %26, label %28

26:                                               ; preds = %3
  %27 = call i32 (ptr, ...) @error(ptr noundef @.str.3)
  store i32 -1, ptr %17, align 4
  br label %132

28:                                               ; preds = %3
  %29 = call ptr @slurm_xcalloc(i64 noundef 1, i64 noundef 4096, i1 noundef zeroext true, i1 noundef zeroext false, ptr noundef @.str.4, i32 noundef 260, ptr noundef @__func__.proctrack_p_get_pids)
  store ptr %29, ptr %12, align 8
  br label %30

30:                                               ; preds = %116, %115, %94, %89, %79, %69, %58, %49, %28
  %31 = load ptr, ptr %7, align 8
  %32 = call ptr @readdir(ptr noundef %31)
  store ptr %32, ptr %8, align 8
  %33 = icmp ne ptr %32, null
  br i1 %33, label %34, label %129

34:                                               ; preds = %30
  %35 = load ptr, ptr %8, align 8
  %36 = getelementptr inbounds nuw %struct.dirent, ptr %35, i32 0, i32 4
  %37 = getelementptr inbounds [256 x i8], ptr %36, i64 0, i64 0
  store ptr %37, ptr %11, align 8
  %38 = load ptr, ptr %11, align 8
  %39 = getelementptr inbounds i8, ptr %38, i64 0
  %40 = load i8, ptr %39, align 1
  %41 = sext i8 %40 to i32
  %42 = icmp slt i32 %41, 48
  br i1 %42, label %49, label %43

43:                                               ; preds = %34
  %44 = load ptr, ptr %11, align 8
  %45 = getelementptr inbounds i8, ptr %44, i64 0
  %46 = load i8, ptr %45, align 1
  %47 = sext i8 %46 to i32
  %48 = icmp sgt i32 %47, 57
  br i1 %48, label %49, label %50

49:                                               ; preds = %43, %34
  br label %30, !llvm.loop !11

50:                                               ; preds = %43
  %51 = load ptr, ptr %11, align 8
  %52 = call i64 @strtol(ptr noundef %51, ptr noundef %10, i32 noundef 10) #5
  store i64 %52, ptr %21, align 8
  %53 = load i64, ptr %21, align 8
  %54 = icmp eq i64 %53, -9223372036854775808
  br i1 %54, label %58, label %55

55:                                               ; preds = %50
  %56 = load i64, ptr %21, align 8
  %57 = icmp eq i64 %56, 9223372036854775807
  br i1 %57, label %58, label %62

58:                                               ; preds = %55, %50
  %59 = load ptr, ptr %11, align 8
  %60 = load i64, ptr %21, align 8
  %61 = call i32 (ptr, ...) @error(ptr noundef @.str.5, ptr noundef %59, i64 noundef %60)
  br label %30, !llvm.loop !11

62:                                               ; preds = %55
  %63 = getelementptr inbounds [4096 x i8], ptr %9, i64 0, i64 0
  %64 = load ptr, ptr %11, align 8
  %65 = call i32 (ptr, ptr, ...) @sprintf(ptr noundef %63, ptr noundef @.str.6, ptr noundef %64) #5
  %66 = getelementptr inbounds [4096 x i8], ptr %9, i64 0, i64 0
  %67 = call i32 (ptr, i32, ...) @open(ptr noundef %66, i32 noundef 0)
  store i32 %67, ptr %16, align 4
  %68 = icmp slt i32 %67, 0
  br i1 %68, label %69, label %70

69:                                               ; preds = %62
  br label %30, !llvm.loop !11

70:                                               ; preds = %62
  %71 = load i32, ptr %16, align 4
  %72 = load ptr, ptr %12, align 8
  %73 = call i64 @read(i32 noundef %71, ptr noundef %72, i64 noundef 4096)
  store i64 %73, ptr %13, align 8
  %74 = load i64, ptr %13, align 8
  %75 = icmp sle i64 %74, 0
  br i1 %75, label %79, label %76

76:                                               ; preds = %70
  %77 = load i64, ptr %13, align 8
  %78 = icmp sge i64 %77, 4096
  br i1 %78, label %79, label %82

79:                                               ; preds = %76, %70
  %80 = load i32, ptr %16, align 4
  %81 = call i32 @close(i32 noundef %80)
  br label %30, !llvm.loop !11

82:                                               ; preds = %76
  %83 = load i32, ptr %16, align 4
  %84 = call i32 @close(i32 noundef %83)
  %85 = load ptr, ptr %12, align 8
  %86 = getelementptr inbounds [1024 x i8], ptr %14, i64 0, i64 0
  %87 = call i32 (ptr, ptr, ...) @__isoc99_sscanf(ptr noundef %85, ptr noundef @.str.7, ptr noundef %18, ptr noundef %86, ptr noundef %15, ptr noundef %19, ptr noundef %20) #5
  %88 = icmp ne i32 %87, 5
  br i1 %88, label %89, label %90

89:                                               ; preds = %82
  br label %30, !llvm.loop !11

90:                                               ; preds = %82
  %91 = load i64, ptr %20, align 8
  %92 = load i64, ptr %4, align 8
  %93 = icmp ne i64 %91, %92
  br i1 %93, label %94, label %95

94:                                               ; preds = %90
  br label %30, !llvm.loop !11

95:                                               ; preds = %90
  %96 = load i8, ptr %15, align 1
  %97 = sext i8 %96 to i32
  %98 = icmp eq i32 %97, 90
  br i1 %98, label %99, label %116

99:                                               ; preds = %95
  br label %100

100:                                              ; preds = %99
  br label %101

101:                                              ; preds = %100
  %102 = call i32 @get_log_level()
  %103 = icmp sge i32 %102, 7
  br i1 %103, label %104, label %111

104:                                              ; preds = %101
  %105 = getelementptr inbounds [1024 x i8], ptr %14, i64 0, i64 0
  %106 = load i8, ptr %15, align 1
  %107 = sext i8 %106 to i32
  %108 = load i64, ptr %18, align 8
  %109 = load i64, ptr %19, align 8
  %110 = load i64, ptr %20, align 8
  call void (i32, ptr, ...) @log_var(i32 noundef 7, ptr noundef @.str.8, ptr noundef @plugin_type, ptr noundef @__func__.proctrack_p_get_pids, ptr noundef %105, i32 noundef %107, i64 noundef %108, i64 noundef %109, i64 noundef %110)
  br label %111

111:                                              ; preds = %104, %101
  br label %112

112:                                              ; preds = %111
  br label %113

113:                                              ; preds = %112
  br label %114

114:                                              ; preds = %113
  br label %115

115:                                              ; preds = %114
  br label %30, !llvm.loop !11

116:                                              ; preds = %95
  %117 = load i32, ptr %23, align 4
  %118 = add nsw i32 %117, 1
  %119 = sext i32 %118 to i64
  %120 = mul i64 4, %119
  %121 = call ptr @slurm_xrecalloc(ptr noundef %22, i64 noundef 1, i64 noundef %120, i1 noundef zeroext true, i1 noundef zeroext false, ptr noundef @.str.4, i32 noundef 293, ptr noundef @__func__.proctrack_p_get_pids)
  %122 = load i64, ptr %18, align 8
  %123 = trunc i64 %122 to i32
  %124 = load ptr, ptr %22, align 8
  %125 = load i32, ptr %23, align 4
  %126 = add nsw i32 %125, 1
  store i32 %126, ptr %23, align 4
  %127 = sext i32 %125 to i64
  %128 = getelementptr inbounds i32, ptr %124, i64 %127
  store i32 %123, ptr %128, align 4
  br label %30, !llvm.loop !11

129:                                              ; preds = %30
  call void @slurm_xfree(ptr noundef %12)
  %130 = load ptr, ptr %7, align 8
  %131 = call i32 @closedir(ptr noundef %130)
  br label %132

132:                                              ; preds = %129, %26
  %133 = load ptr, ptr %22, align 8
  %134 = load ptr, ptr %5, align 8
  store ptr %133, ptr %134, align 8
  %135 = load i32, ptr %23, align 4
  %136 = load ptr, ptr %6, align 8
  store i32 %135, ptr %136, align 4
  %137 = load i32, ptr %17, align 4
  call void @llvm.lifetime.end.p0(i64 4, ptr %23) #5
  call void @llvm.lifetime.end.p0(i64 8, ptr %22) #5
  call void @llvm.lifetime.end.p0(i64 8, ptr %21) #5
  call void @llvm.lifetime.end.p0(i64 8, ptr %20) #5
  call void @llvm.lifetime.end.p0(i64 8, ptr %19) #5
  call void @llvm.lifetime.end.p0(i64 8, ptr %18) #5
  call void @llvm.lifetime.end.p0(i64 4, ptr %17) #5
  call void @llvm.lifetime.end.p0(i64 4, ptr %16) #5
  call void @llvm.lifetime.end.p0(i64 1, ptr %15) #5
  call void @llvm.lifetime.end.p0(i64 1024, ptr %14) #5
  call void @llvm.lifetime.end.p0(i64 8, ptr %13) #5
  call void @llvm.lifetime.end.p0(i64 8, ptr %12) #5
  call void @llvm.lifetime.end.p0(i64 8, ptr %11) #5
  call void @llvm.lifetime.end.p0(i64 8, ptr %10) #5
  call void @llvm.lifetime.end.p0(i64 4096, ptr %9) #5
  call void @llvm.lifetime.end.p0(i64 8, ptr %8) #5
  call void @llvm.lifetime.end.p0(i64 8, ptr %7) #5
  ret i32 %137
}