; Function Attrs: nounwind uwtable
define dso_local range(i32 -1, 1) i32 @proctrack_p_get_pids(i64 noundef %0, ptr noundef writeonly captures(none) %1, ptr noundef writeonly captures(none) %2) local_unnamed_addr #2 {
  %4 = alloca [4096 x i8], align 16
  %5 = alloca ptr, align 8
  %6 = alloca ptr, align 8
  %7 = alloca [1024 x i8], align 16
  %8 = alloca i8, align 1
  %9 = alloca i64, align 8
  %10 = alloca i64, align 8
  %11 = alloca i64, align 8
  %12 = alloca ptr, align 8
  call void @llvm.lifetime.start.p0(i64 4096, ptr nonnull %4) #10
  call void @llvm.lifetime.start.p0(i64 8, ptr nonnull %5) #10
  call void @llvm.lifetime.start.p0(i64 8, ptr nonnull %6) #10
  call void @llvm.lifetime.start.p0(i64 1024, ptr nonnull %7) #10
  call void @llvm.lifetime.start.p0(i64 1, ptr nonnull %8) #10
  call void @llvm.lifetime.start.p0(i64 8, ptr nonnull %9) #10
  call void @llvm.lifetime.start.p0(i64 8, ptr nonnull %10) #10
  call void @llvm.lifetime.start.p0(i64 8, ptr nonnull %11) #10
  call void @llvm.lifetime.start.p0(i64 8, ptr nonnull %12) #10
  store ptr null, ptr %12, align 8
  %13 = tail call ptr @opendir(ptr noundef nonnull @.str.2)
  %14 = icmp eq ptr %13, null
  br i1 %14, label %15, label %17

15:                                               ; preds = %3
  %16 = tail call i32 (ptr, ...) @error(ptr noundef nonnull @.str.3) #10
  br label %66

17:                                               ; preds = %3
  %18 = tail call ptr @slurm_xcalloc(i64 noundef 1, i64 noundef 4096, i1 noundef zeroext true, i1 noundef zeroext false, ptr noundef nonnull @.str.4, i32 noundef 260, ptr noundef nonnull @__func__.proctrack_p_get_pids) #10
  store ptr %18, ptr %6, align 8
  %19 = tail call ptr @readdir(ptr noundef nonnull %13) #10
  %.not3436 = icmp eq ptr %19, null
  br i1 %.not3436, label %.outer._crit_edge, label %.lr.ph

.lr.ph:                                           ; preds = %17, %.outer
  %indvars.iv = phi i64 [ %indvars.iv.next, %.outer ], [ 0, %17 ]
  %20 = phi ptr [ %62, %.outer ], [ %19, %17 ]
  br label %21

21:                                               ; preds = %.lr.ph, %.backedge
  %22 = phi ptr [ %20, %.lr.ph ], [ %31, %.backedge ]
  %23 = getelementptr inbounds nuw i8, ptr %22, i64 19
  %24 = load i8, ptr %23, align 1
  %25 = add i8 %24, -58
  %or.cond32 = icmp ult i8 %25, -10
  br i1 %or.cond32, label %.backedge, label %26

26:                                               ; preds = %21
  %27 = call i64 @strtol(ptr noundef nonnull %23, ptr noundef nonnull %5, i32 noundef 10) #10
  %28 = add i64 %27, -9223372036854775807
  %or.cond = icmp ult i64 %28, 2
  br i1 %or.cond, label %29, label %32

29:                                               ; preds = %26
  %30 = call i32 (ptr, ...) @error(ptr noundef nonnull @.str.5, ptr noundef nonnull %23, i64 noundef %27) #10
  br label %.backedge

.backedge:                                        ; preds = %36, %47, %50, %29, %32, %41, %21
  %31 = call ptr @readdir(ptr noundef nonnull %13) #10
  %.not = icmp eq ptr %31, null
  br i1 %.not, label %.outer._crit_edge.loopexit, label %21, !llvm.loop !8

32:                                               ; preds = %26
  %33 = call i32 (ptr, ptr, ...) @sprintf(ptr noundef nonnull dereferenceable(1) %4, ptr noundef nonnull dereferenceable(1) @.str.6, ptr noundef nonnull %23) #10
  %34 = call i32 (ptr, i32, ...) @open(ptr noundef nonnull %4, i32 noundef 0) #10
  %35 = icmp slt i32 %34, 0
  br i1 %35, label %.backedge, label %36

36:                                               ; preds = %32
  %37 = load ptr, ptr %6, align 8
  %38 = call i64 @read(i32 noundef %34, ptr noundef %37, i64 noundef 4096) #10
  %39 = add i64 %38, -4096
  %or.cond3 = icmp ult i64 %39, -4095
  %40 = call i32 @close(i32 noundef %34) #10
  br i1 %or.cond3, label %.backedge, label %41

41:                                               ; preds = %36
  %42 = call i32 (ptr, ptr, ...) @__isoc99_sscanf(ptr noundef %37, ptr noundef nonnull @.str.7, ptr noundef nonnull %9, ptr noundef nonnull %7, ptr noundef nonnull %8, ptr noundef nonnull %10, ptr noundef nonnull %11) #10
  %.not30 = icmp eq i32 %42, 5
  %43 = load i64, ptr %11, align 8
  %.not31 = icmp eq i64 %43, %0
  %or.cond33 = select i1 %.not30, i1 %.not31, i1 false
  br i1 %or.cond33, label %44, label %.backedge

44:                                               ; preds = %41
  %45 = load i8, ptr %8, align 1
  %46 = icmp eq i8 %45, 90
  br i1 %46, label %47, label %.outer

47:                                               ; preds = %44
  %48 = call i32 @get_log_level() #10
  %49 = icmp sgt i32 %48, 6
  br i1 %49, label %50, label %.backedge

50:                                               ; preds = %47
  %51 = load i8, ptr %8, align 1
  %52 = sext i8 %51 to i32
  %53 = load i64, ptr %9, align 8
  %54 = load i64, ptr %10, align 8
  %55 = load i64, ptr %11, align 8
  call void (i32, ptr, ...) @log_var(i32 noundef 7, ptr noundef nonnull @.str.8, ptr noundef nonnull @plugin_type, ptr noundef nonnull @__func__.proctrack_p_get_pids, ptr noundef nonnull %7, i32 noundef %52, i64 noundef %53, i64 noundef %54, i64 noundef %55) #10
  br label %.backedge

.outer:                                           ; preds = %44
  %indvars.iv.next = add nuw nsw i64 %indvars.iv, 1
  %56 = shl nuw nsw i64 %indvars.iv.next, 2
  %57 = call ptr @slurm_xrecalloc(ptr noundef nonnull %12, i64 noundef 1, i64 noundef %56, i1 noundef zeroext true, i1 noundef zeroext false, ptr noundef nonnull @.str.4, i32 noundef 293, ptr noundef nonnull @__func__.proctrack_p_get_pids) #10
  %58 = load i64, ptr %9, align 8
  %59 = trunc i64 %58 to i32
  %60 = load ptr, ptr %12, align 8
  %61 = getelementptr inbounds nuw i32, ptr %60, i64 %indvars.iv
  store i32 %59, ptr %61, align 4
  %62 = call ptr @readdir(ptr noundef nonnull %13) #10
  %.not34 = icmp eq ptr %62, null
  br i1 %.not34, label %.outer._crit_edge.loopexit39, label %.lr.ph, !llvm.loop !8

.outer._crit_edge.loopexit:                       ; preds = %.backedge
  %63 = trunc nuw nsw i64 %indvars.iv to i32
  br label %.outer._crit_edge

.outer._crit_edge.loopexit39:                     ; preds = %.outer
  %64 = trunc nuw i64 %indvars.iv.next to i32
  br label %.outer._crit_edge

.outer._crit_edge:                                ; preds = %.outer._crit_edge.loopexit39, %.outer._crit_edge.loopexit, %17
  %.1.ph.lcssa = phi i32 [ 0, %17 ], [ %63, %.outer._crit_edge.loopexit ], [ %64, %.outer._crit_edge.loopexit39 ]
  call void @slurm_xfree(ptr noundef nonnull %6) #10
  %65 = call i32 @closedir(ptr noundef nonnull %13)
  %.pre = load ptr, ptr %12, align 8
  br label %66

66:                                               ; preds = %.outer._crit_edge, %15
  %67 = phi ptr [ null, %15 ], [ %.pre, %.outer._crit_edge ]
  %.025 = phi i32 [ -1, %15 ], [ 0, %.outer._crit_edge ]
  %.0 = phi i32 [ 0, %15 ], [ %.1.ph.lcssa, %.outer._crit_edge ]
  store ptr %67, ptr %1, align 8
  store i32 %.0, ptr %2, align 4
  call void @llvm.lifetime.end.p0(i64 8, ptr nonnull %12) #10
  call void @llvm.lifetime.end.p0(i64 8, ptr nonnull %11) #10
  call void @llvm.lifetime.end.p0(i64 8, ptr nonnull %10) #10
  call void @llvm.lifetime.end.p0(i64 8, ptr nonnull %9) #10
  call void @llvm.lifetime.end.p0(i64 1, ptr nonnull %8) #10
  call void @llvm.lifetime.end.p0(i64 1024, ptr nonnull %7) #10
  call void @llvm.lifetime.end.p0(i64 8, ptr nonnull %6) #10
  call void @llvm.lifetime.end.p0(i64 8, ptr nonnull %5) #10
  call void @llvm.lifetime.end.p0(i64 4096, ptr nonnull %4) #10
  ret i32 %.025
}